ARM GAS  /tmp/ccA9H1hJ.s 			page 1


   1              		.cpu cortex-m4
   2              		.eabi_attribute 27, 1
   3              		.eabi_attribute 28, 1
   4              		.eabi_attribute 20, 1
   5              		.eabi_attribute 21, 1
   6              		.eabi_attribute 23, 3
   7              		.eabi_attribute 24, 1
   8              		.eabi_attribute 25, 1
   9              		.eabi_attribute 26, 1
  10              		.eabi_attribute 30, 1
  11              		.eabi_attribute 34, 1
  12              		.eabi_attribute 18, 4
  13              		.file	"main.c"
  14              		.text
  15              	.Ltext0:
  16              		.cfi_sections	.debug_frame
  17              		.section	.text.SystemClock_Config,"ax",%progbits
  18              		.align	1
  19              		.global	SystemClock_Config
  20              		.arch armv7e-m
  21              		.syntax unified
  22              		.thumb
  23              		.thumb_func
  24              		.fpu fpv4-sp-d16
  26              	SystemClock_Config:
  27              	.LFB131:
  28              		.file 1 "Core/Src/main.c"
   1:Core/Src/main.c **** #include "main.h"
   2:Core/Src/main.c **** #include "stm32f4xx_hal.h"
   3:Core/Src/main.c **** 
   4:Core/Src/main.c **** void SystemClock_Config(void);
   5:Core/Src/main.c **** void UART2_Init(void); 
   6:Core/Src/main.c **** void Error_handler(void);
   7:Core/Src/main.c **** 
   8:Core/Src/main.c **** UART_HandleTypeDef huart2;
   9:Core/Src/main.c **** 
  10:Core/Src/main.c **** int main(void) {
  11:Core/Src/main.c ****   
  12:Core/Src/main.c ****   HAL_Init();
  13:Core/Src/main.c ****   SystemClock_Config();
  14:Core/Src/main.c ****   UART2_Init();
  15:Core/Src/main.c ****   
  16:Core/Src/main.c ****   while (1);
  17:Core/Src/main.c ****   
  18:Core/Src/main.c ****   return 0; 
  19:Core/Src/main.c **** }
  20:Core/Src/main.c **** 
  21:Core/Src/main.c **** void SystemClock_Config(void) {
  29              		.loc 1 21 31 view -0
  30              		.cfi_startproc
  31              		@ args = 0, pretend = 0, frame = 0
  32              		@ frame_needed = 0, uses_anonymous_args = 0
  33              		@ link register save eliminated.
  22:Core/Src/main.c **** 
  23:Core/Src/main.c **** }
  34              		.loc 1 23 1 view .LVU1
  35 0000 7047     		bx	lr
ARM GAS  /tmp/ccA9H1hJ.s 			page 2


  36              		.cfi_endproc
  37              	.LFE131:
  39              		.section	.text.Error_handler,"ax",%progbits
  40              		.align	1
  41              		.global	Error_handler
  42              		.syntax unified
  43              		.thumb
  44              		.thumb_func
  45              		.fpu fpv4-sp-d16
  47              	Error_handler:
  48              	.LFB133:
  24:Core/Src/main.c **** 
  25:Core/Src/main.c **** void UART2_Init(void) {
  26:Core/Src/main.c **** 	huart2.Instance = USART2;
  27:Core/Src/main.c **** 	huart2.Init.BaudRate = 115200;
  28:Core/Src/main.c **** 	huart2.Init.WordLength = UART_WORDLENGTH_8B;
  29:Core/Src/main.c **** 	huart2.Init.StopBits = UART_STOPBITS_1;
  30:Core/Src/main.c **** 	huart2.Init.Parity = UART_PARITY_NONE;
  31:Core/Src/main.c **** 	huart2.Init.HwFlowCtl = UART_HWCONTROL_NONE;
  32:Core/Src/main.c **** 	huart2.Init.Mode = UART_MODE_TX_RX;
  33:Core/Src/main.c **** 	if ( HAL_UART_Init(&huart2) != HAL_OK ) {
  34:Core/Src/main.c **** 		Error_handler();
  35:Core/Src/main.c **** 	}
  36:Core/Src/main.c **** }
  37:Core/Src/main.c **** 
  38:Core/Src/main.c **** void Error_handler(void) {
  49              		.loc 1 38 26 view -0
  50              		.cfi_startproc
  51              		@ Volatile: function does not return.
  52              		@ args = 0, pretend = 0, frame = 0
  53              		@ frame_needed = 0, uses_anonymous_args = 0
  54              		@ link register save eliminated.
  55              	.L3:
  39:Core/Src/main.c ****   while(1);
  56              		.loc 1 39 3 discriminator 1 view .LVU3
  57              		.loc 1 39 11 discriminator 1 view .LVU4
  58              		.loc 1 39 8 discriminator 1 view .LVU5
  59 0000 FEE7     		b	.L3
  60              		.cfi_endproc
  61              	.LFE133:
  63              		.section	.text.UART2_Init,"ax",%progbits
  64              		.align	1
  65              		.global	UART2_Init
  66              		.syntax unified
  67              		.thumb
  68              		.thumb_func
  69              		.fpu fpv4-sp-d16
  71              	UART2_Init:
  72              	.LFB132:
  25:Core/Src/main.c **** 	huart2.Instance = USART2;
  73              		.loc 1 25 23 view -0
  74              		.cfi_startproc
  75              		@ args = 0, pretend = 0, frame = 0
  76              		@ frame_needed = 0, uses_anonymous_args = 0
  77 0000 08B5     		push	{r3, lr}
  78              	.LCFI0:
  79              		.cfi_def_cfa_offset 8
ARM GAS  /tmp/ccA9H1hJ.s 			page 3


  80              		.cfi_offset 3, -8
  81              		.cfi_offset 14, -4
  26:Core/Src/main.c **** 	huart2.Init.BaudRate = 115200;
  82              		.loc 1 26 2 view .LVU7
  26:Core/Src/main.c **** 	huart2.Init.BaudRate = 115200;
  83              		.loc 1 26 18 is_stmt 0 view .LVU8
  84 0002 0948     		ldr	r0, .L8
  85 0004 094B     		ldr	r3, .L8+4
  86 0006 0360     		str	r3, [r0]
  27:Core/Src/main.c **** 	huart2.Init.WordLength = UART_WORDLENGTH_8B;
  87              		.loc 1 27 2 is_stmt 1 view .LVU9
  27:Core/Src/main.c **** 	huart2.Init.WordLength = UART_WORDLENGTH_8B;
  88              		.loc 1 27 23 is_stmt 0 view .LVU10
  89 0008 4FF4E133 		mov	r3, #115200
  90 000c 4360     		str	r3, [r0, #4]
  28:Core/Src/main.c **** 	huart2.Init.StopBits = UART_STOPBITS_1;
  91              		.loc 1 28 2 is_stmt 1 view .LVU11
  28:Core/Src/main.c **** 	huart2.Init.StopBits = UART_STOPBITS_1;
  92              		.loc 1 28 25 is_stmt 0 view .LVU12
  93 000e 0023     		movs	r3, #0
  94 0010 8360     		str	r3, [r0, #8]
  29:Core/Src/main.c **** 	huart2.Init.Parity = UART_PARITY_NONE;
  95              		.loc 1 29 2 is_stmt 1 view .LVU13
  29:Core/Src/main.c **** 	huart2.Init.Parity = UART_PARITY_NONE;
  96              		.loc 1 29 23 is_stmt 0 view .LVU14
  97 0012 C360     		str	r3, [r0, #12]
  30:Core/Src/main.c **** 	huart2.Init.HwFlowCtl = UART_HWCONTROL_NONE;
  98              		.loc 1 30 2 is_stmt 1 view .LVU15
  30:Core/Src/main.c **** 	huart2.Init.HwFlowCtl = UART_HWCONTROL_NONE;
  99              		.loc 1 30 21 is_stmt 0 view .LVU16
 100 0014 0361     		str	r3, [r0, #16]
  31:Core/Src/main.c **** 	huart2.Init.Mode = UART_MODE_TX_RX;
 101              		.loc 1 31 2 is_stmt 1 view .LVU17
  31:Core/Src/main.c **** 	huart2.Init.Mode = UART_MODE_TX_RX;
 102              		.loc 1 31 24 is_stmt 0 view .LVU18
 103 0016 8361     		str	r3, [r0, #24]
  32:Core/Src/main.c **** 	if ( HAL_UART_Init(&huart2) != HAL_OK ) {
 104              		.loc 1 32 2 is_stmt 1 view .LVU19
  32:Core/Src/main.c **** 	if ( HAL_UART_Init(&huart2) != HAL_OK ) {
 105              		.loc 1 32 19 is_stmt 0 view .LVU20
 106 0018 0C23     		movs	r3, #12
 107 001a 4361     		str	r3, [r0, #20]
  33:Core/Src/main.c **** 		Error_handler();
 108              		.loc 1 33 2 is_stmt 1 view .LVU21
  33:Core/Src/main.c **** 		Error_handler();
 109              		.loc 1 33 7 is_stmt 0 view .LVU22
 110 001c FFF7FEFF 		bl	HAL_UART_Init
 111              	.LVL0:
  33:Core/Src/main.c **** 		Error_handler();
 112              		.loc 1 33 5 view .LVU23
 113 0020 00B9     		cbnz	r0, .L7
  36:Core/Src/main.c **** 
 114              		.loc 1 36 1 view .LVU24
 115 0022 08BD     		pop	{r3, pc}
 116              	.L7:
  34:Core/Src/main.c **** 	}
 117              		.loc 1 34 3 is_stmt 1 view .LVU25
ARM GAS  /tmp/ccA9H1hJ.s 			page 4


 118 0024 FFF7FEFF 		bl	Error_handler
 119              	.LVL1:
 120              	.L9:
 121              		.align	2
 122              	.L8:
 123 0028 00000000 		.word	.LANCHOR0
 124 002c 00440040 		.word	1073759232
 125              		.cfi_endproc
 126              	.LFE132:
 128              		.section	.text.main,"ax",%progbits
 129              		.align	1
 130              		.global	main
 131              		.syntax unified
 132              		.thumb
 133              		.thumb_func
 134              		.fpu fpv4-sp-d16
 136              	main:
 137              	.LFB130:
  10:Core/Src/main.c ****   
 138              		.loc 1 10 16 view -0
 139              		.cfi_startproc
 140              		@ Volatile: function does not return.
 141              		@ args = 0, pretend = 0, frame = 0
 142              		@ frame_needed = 0, uses_anonymous_args = 0
 143 0000 08B5     		push	{r3, lr}
 144              	.LCFI1:
 145              		.cfi_def_cfa_offset 8
 146              		.cfi_offset 3, -8
 147              		.cfi_offset 14, -4
  12:Core/Src/main.c ****   SystemClock_Config();
 148              		.loc 1 12 3 view .LVU27
 149 0002 FFF7FEFF 		bl	HAL_Init
 150              	.LVL2:
  13:Core/Src/main.c ****   UART2_Init();
 151              		.loc 1 13 3 view .LVU28
  14:Core/Src/main.c ****   
 152              		.loc 1 14 3 view .LVU29
 153 0006 FFF7FEFF 		bl	UART2_Init
 154              	.LVL3:
 155              	.L11:
  16:Core/Src/main.c ****   
 156              		.loc 1 16 3 discriminator 1 view .LVU30
  16:Core/Src/main.c ****   
 157              		.loc 1 16 12 discriminator 1 view .LVU31
  16:Core/Src/main.c ****   
 158              		.loc 1 16 9 discriminator 1 view .LVU32
 159 000a FEE7     		b	.L11
 160              		.cfi_endproc
 161              	.LFE130:
 163              		.global	huart2
 164              		.section	.bss.huart2,"aw",%nobits
 165              		.align	2
 166              		.set	.LANCHOR0,. + 0
 169              	huart2:
 170 0000 00000000 		.space	68
 170      00000000 
 170      00000000 
ARM GAS  /tmp/ccA9H1hJ.s 			page 5


 170      00000000 
 170      00000000 
 171              		.text
 172              	.Letext0:
 173              		.file 2 "/usr/lib/gcc/arm-none-eabi/10.3.1/include/stdint.h"
 174              		.file 3 "Drivers/CMSIS/Device/ST/STM32F4xx/Include/stm32f446xx.h"
 175              		.file 4 "Drivers/STM32F4xx_HAL_Driver/Inc/stm32f4xx_hal_def.h"
 176              		.file 5 "Drivers/STM32F4xx_HAL_Driver/Inc/stm32f4xx_hal_dma.h"
 177              		.file 6 "Drivers/STM32F4xx_HAL_Driver/Inc/stm32f4xx_hal_uart.h"
 178              		.file 7 "Drivers/STM32F4xx_HAL_Driver/Inc/stm32f4xx_hal.h"
ARM GAS  /tmp/ccA9H1hJ.s 			page 6


DEFINED SYMBOLS
                            *ABS*:0000000000000000 main.c
     /tmp/ccA9H1hJ.s:18     .text.SystemClock_Config:0000000000000000 $t
     /tmp/ccA9H1hJ.s:26     .text.SystemClock_Config:0000000000000000 SystemClock_Config
     /tmp/ccA9H1hJ.s:40     .text.Error_handler:0000000000000000 $t
     /tmp/ccA9H1hJ.s:47     .text.Error_handler:0000000000000000 Error_handler
     /tmp/ccA9H1hJ.s:64     .text.UART2_Init:0000000000000000 $t
     /tmp/ccA9H1hJ.s:71     .text.UART2_Init:0000000000000000 UART2_Init
     /tmp/ccA9H1hJ.s:123    .text.UART2_Init:0000000000000028 $d
     /tmp/ccA9H1hJ.s:129    .text.main:0000000000000000 $t
     /tmp/ccA9H1hJ.s:136    .text.main:0000000000000000 main
     /tmp/ccA9H1hJ.s:169    .bss.huart2:0000000000000000 huart2
     /tmp/ccA9H1hJ.s:165    .bss.huart2:0000000000000000 $d

UNDEFINED SYMBOLS
HAL_UART_Init
HAL_Init
