ARM GAS  /tmp/ccgrzZAz.s 			page 1


   1              		.cpu cortex-m4
   2              		.eabi_attribute 27, 1
   3              		.eabi_attribute 28, 1
   4              		.eabi_attribute 20, 1
   5              		.eabi_attribute 21, 1
   6              		.eabi_attribute 23, 3
   7              		.eabi_attribute 24, 1
   8              		.eabi_attribute 25, 1
   9              		.eabi_attribute 26, 1
  10              		.eabi_attribute 30, 1
  11              		.eabi_attribute 34, 1
  12              		.eabi_attribute 18, 4
  13              		.file	"main.c"
  14              		.text
  15              	.Ltext0:
  16              		.cfi_sections	.debug_frame
  17              		.section	.text.SystemClock_Config,"ax",%progbits
  18              		.align	1
  19              		.global	SystemClock_Config
  20              		.arch armv7e-m
  21              		.syntax unified
  22              		.thumb
  23              		.thumb_func
  24              		.fpu fpv4-sp-d16
  26              	SystemClock_Config:
  27              	.LFB131:
  28              		.file 1 "Core/Src/main.c"
   1:Core/Src/main.c **** #include "main.h"
   2:Core/Src/main.c **** #include "stm32f4xx_hal.h"
   3:Core/Src/main.c **** 
   4:Core/Src/main.c **** void SystemClock_Config(void);
   5:Core/Src/main.c **** void UART2_Init(void); 
   6:Core/Src/main.c **** 
   7:Core/Src/main.c **** int main(void) {
   8:Core/Src/main.c ****   
   9:Core/Src/main.c ****   HAL_Init();
  10:Core/Src/main.c ****   SystemClock_Config();
  11:Core/Src/main.c ****   UART2_Init();
  12:Core/Src/main.c ****   
  13:Core/Src/main.c ****   while (1) {
  14:Core/Src/main.c **** 
  15:Core/Src/main.c **** 
  16:Core/Src/main.c ****   }
  17:Core/Src/main.c ****   
  18:Core/Src/main.c ****   return 0; 
  19:Core/Src/main.c **** }
  20:Core/Src/main.c **** 
  21:Core/Src/main.c **** void SystemClock_Config(void) {
  29              		.loc 1 21 31 view -0
  30              		.cfi_startproc
  31              		@ args = 0, pretend = 0, frame = 0
  32              		@ frame_needed = 0, uses_anonymous_args = 0
  33              		@ link register save eliminated.
  22:Core/Src/main.c **** 
  23:Core/Src/main.c **** }
  34              		.loc 1 23 1 view .LVU1
  35 0000 7047     		bx	lr
ARM GAS  /tmp/ccgrzZAz.s 			page 2


  36              		.cfi_endproc
  37              	.LFE131:
  39              		.section	.text.UART2_Init,"ax",%progbits
  40              		.align	1
  41              		.global	UART2_Init
  42              		.syntax unified
  43              		.thumb
  44              		.thumb_func
  45              		.fpu fpv4-sp-d16
  47              	UART2_Init:
  48              	.LFB132:
  24:Core/Src/main.c **** 
  25:Core/Src/main.c **** void UART2_Init(void) {
  49              		.loc 1 25 23 view -0
  50              		.cfi_startproc
  51              		@ args = 0, pretend = 0, frame = 72
  52              		@ frame_needed = 0, uses_anonymous_args = 0
  53 0000 00B5     		push	{lr}
  54              	.LCFI0:
  55              		.cfi_def_cfa_offset 4
  56              		.cfi_offset 14, -4
  57 0002 93B0     		sub	sp, sp, #76
  58              	.LCFI1:
  59              		.cfi_def_cfa_offset 80
  26:Core/Src/main.c ****   UART_HandleTypeDef huart2;
  60              		.loc 1 26 3 view .LVU3
  27:Core/Src/main.c ****   huart2.Instance = USART2;
  61              		.loc 1 27 3 view .LVU4
  62              		.loc 1 27 19 is_stmt 0 view .LVU5
  63 0004 094B     		ldr	r3, .L6
  64 0006 0193     		str	r3, [sp, #4]
  28:Core/Src/main.c ****   huart2.Init.BaudRate = 115200; 
  65              		.loc 1 28 3 is_stmt 1 view .LVU6
  66              		.loc 1 28 24 is_stmt 0 view .LVU7
  67 0008 4FF4E133 		mov	r3, #115200
  68 000c 0293     		str	r3, [sp, #8]
  29:Core/Src/main.c ****   huart2.Init.WordLength = UART_WORDLENGTH_8B; 
  69              		.loc 1 29 3 is_stmt 1 view .LVU8
  70              		.loc 1 29 26 is_stmt 0 view .LVU9
  71 000e 0023     		movs	r3, #0
  72 0010 0393     		str	r3, [sp, #12]
  30:Core/Src/main.c ****   huart2.Init.StopBits = UART_STOPBITS_1;
  73              		.loc 1 30 3 is_stmt 1 view .LVU10
  74              		.loc 1 30 24 is_stmt 0 view .LVU11
  75 0012 0493     		str	r3, [sp, #16]
  31:Core/Src/main.c ****   huart2.Init.Parity = UART_PARITY_NONE;
  76              		.loc 1 31 3 is_stmt 1 view .LVU12
  77              		.loc 1 31 22 is_stmt 0 view .LVU13
  78 0014 0593     		str	r3, [sp, #20]
  32:Core/Src/main.c ****   huart2.Init.HwFlowCtl = UART_HWCONTROL_NONE;
  79              		.loc 1 32 3 is_stmt 1 view .LVU14
  80              		.loc 1 32 25 is_stmt 0 view .LVU15
  81 0016 0793     		str	r3, [sp, #28]
  33:Core/Src/main.c ****   huart2.Init.Mode = UART_MODE_TX_RX; 
  82              		.loc 1 33 3 is_stmt 1 view .LVU16
  83              		.loc 1 33 20 is_stmt 0 view .LVU17
  84 0018 0C23     		movs	r3, #12
ARM GAS  /tmp/ccgrzZAz.s 			page 3


  85 001a 0693     		str	r3, [sp, #24]
  34:Core/Src/main.c ****   if (HAL_UART_Init(&huart2) != HAL_OK) {
  86              		.loc 1 34 3 is_stmt 1 view .LVU18
  87              		.loc 1 34 7 is_stmt 0 view .LVU19
  88 001c 01A8     		add	r0, sp, #4
  89 001e FFF7FEFF 		bl	HAL_UART_Init
  90              	.LVL0:
  91              		.loc 1 34 6 view .LVU20
  92 0022 00B1     		cbz	r0, .L2
  93              	.L4:
  35:Core/Src/main.c ****     while(1) {
  94              		.loc 1 35 5 is_stmt 1 discriminator 1 view .LVU21
  36:Core/Src/main.c ****     }
  95              		.loc 1 36 5 discriminator 1 view .LVU22
  35:Core/Src/main.c ****     while(1) {
  96              		.loc 1 35 10 discriminator 1 view .LVU23
  97 0024 FEE7     		b	.L4
  98              	.L2:
  37:Core/Src/main.c ****   }
  38:Core/Src/main.c **** }
  99              		.loc 1 38 1 is_stmt 0 view .LVU24
 100 0026 13B0     		add	sp, sp, #76
 101              	.LCFI2:
 102              		.cfi_def_cfa_offset 4
 103              		@ sp needed
 104 0028 5DF804FB 		ldr	pc, [sp], #4
 105              	.L7:
 106              		.align	2
 107              	.L6:
 108 002c 00440040 		.word	1073759232
 109              		.cfi_endproc
 110              	.LFE132:
 112              		.section	.text.main,"ax",%progbits
 113              		.align	1
 114              		.global	main
 115              		.syntax unified
 116              		.thumb
 117              		.thumb_func
 118              		.fpu fpv4-sp-d16
 120              	main:
 121              	.LFB130:
   7:Core/Src/main.c ****   
 122              		.loc 1 7 16 is_stmt 1 view -0
 123              		.cfi_startproc
 124              		@ Volatile: function does not return.
 125              		@ args = 0, pretend = 0, frame = 0
 126              		@ frame_needed = 0, uses_anonymous_args = 0
 127 0000 08B5     		push	{r3, lr}
 128              	.LCFI3:
 129              		.cfi_def_cfa_offset 8
 130              		.cfi_offset 3, -8
 131              		.cfi_offset 14, -4
   9:Core/Src/main.c ****   SystemClock_Config();
 132              		.loc 1 9 3 view .LVU26
 133 0002 FFF7FEFF 		bl	HAL_Init
 134              	.LVL1:
  10:Core/Src/main.c ****   UART2_Init();
ARM GAS  /tmp/ccgrzZAz.s 			page 4


 135              		.loc 1 10 3 view .LVU27
  11:Core/Src/main.c ****   
 136              		.loc 1 11 3 view .LVU28
 137 0006 FFF7FEFF 		bl	UART2_Init
 138              	.LVL2:
 139              	.L9:
  13:Core/Src/main.c **** 
 140              		.loc 1 13 3 discriminator 1 view .LVU29
  16:Core/Src/main.c ****   
 141              		.loc 1 16 3 discriminator 1 view .LVU30
  13:Core/Src/main.c **** 
 142              		.loc 1 13 9 discriminator 1 view .LVU31
 143 000a FEE7     		b	.L9
 144              		.cfi_endproc
 145              	.LFE130:
 147              		.text
 148              	.Letext0:
 149              		.file 2 "/usr/lib/gcc/arm-none-eabi/10.3.1/include/stdint.h"
 150              		.file 3 "Drivers/CMSIS/Device/ST/STM32F4xx/Include/stm32f446xx.h"
 151              		.file 4 "Drivers/STM32F4xx_HAL_Driver/Inc/stm32f4xx_hal_def.h"
 152              		.file 5 "Drivers/STM32F4xx_HAL_Driver/Inc/stm32f4xx_hal_dma.h"
 153              		.file 6 "Drivers/STM32F4xx_HAL_Driver/Inc/stm32f4xx_hal_uart.h"
 154              		.file 7 "Drivers/STM32F4xx_HAL_Driver/Inc/stm32f4xx_hal.h"
ARM GAS  /tmp/ccgrzZAz.s 			page 5


DEFINED SYMBOLS
                            *ABS*:0000000000000000 main.c
     /tmp/ccgrzZAz.s:18     .text.SystemClock_Config:0000000000000000 $t
     /tmp/ccgrzZAz.s:26     .text.SystemClock_Config:0000000000000000 SystemClock_Config
     /tmp/ccgrzZAz.s:40     .text.UART2_Init:0000000000000000 $t
     /tmp/ccgrzZAz.s:47     .text.UART2_Init:0000000000000000 UART2_Init
     /tmp/ccgrzZAz.s:108    .text.UART2_Init:000000000000002c $d
     /tmp/ccgrzZAz.s:113    .text.main:0000000000000000 $t
     /tmp/ccgrzZAz.s:120    .text.main:0000000000000000 main

UNDEFINED SYMBOLS
HAL_UART_Init
HAL_Init
